target datalayout = "e-m:e-p270:32:32-p271:32:32-p272:64:64-i64:64-i128:128-f80:128-n8:16:32:64-S128"
target triple = "x86_64-pc-linux-gnu"

%struct.expert_field = type { i32, i32 }

@hf_gtpv2_source_type = internal global i32 0, align 4
@ei_gtpv2_source_type_unknown = internal global %struct.expert_field zeroinitializer, align 4

; Function Attrs: null_pointer_is_valid sspstrong uwtable
define internal void @dissect_gtpv2_source_ident(ptr noundef %0, ptr noundef %1, ptr noundef %2, ptr noundef %3, i16 noundef zeroext %4, i8 noundef zeroext %5, i8 noundef zeroext %6, ptr noundef %7) #1 {
  %9 = alloca ptr, align 8
  %10 = alloca ptr, align 8
  %11 = alloca ptr, align 8
  %12 = alloca ptr, align 8
  %13 = alloca i16, align 2
  %14 = alloca i8, align 1
  %15 = alloca i8, align 1
  %16 = alloca ptr, align 8
  %17 = alloca i32, align 4
  %18 = alloca i8, align 1
  store ptr %0, ptr %9, align 8
  store ptr %1, ptr %10, align 8
  store ptr %2, ptr %11, align 8
  store ptr %3, ptr %12, align 8
  store i16 %4, ptr %13, align 2
  store i8 %5, ptr %14, align 1
  store i8 %6, ptr %15, align 1
  store ptr %7, ptr %16, align 8
  call void @llvm.lifetime.start.p0(i64 4, ptr %17) #11
  store i32 0, ptr %17, align 4
  call void @llvm.lifetime.start.p0(i64 1, ptr %18) #11
  %19 = load ptr, ptr %9, align 8
  %20 = load ptr, ptr %11, align 8
  %21 = load ptr, ptr %10, align 8
  %22 = load i32, ptr %17, align 4
  %23 = call zeroext i16 @de_cell_id(ptr noundef %19, ptr noundef %20, ptr noundef %21, i32 noundef %22, i32 noundef 8, ptr noundef null, i32 noundef 0)
  %24 = load i32, ptr %17, align 4
  %25 = add i32 %24, 8
  store i32 %25, ptr %17, align 4
  %26 = load ptr, ptr %9, align 8
  %27 = load i32, ptr %17, align 4
  %28 = call zeroext i8 @tvb_get_uint8(ptr noundef %26, i32 noundef %27)
  store i8 %28, ptr %18, align 1
  %29 = load ptr, ptr %11, align 8
  %30 = load i32, ptr @hf_gtpv2_source_type, align 4
  %31 = load ptr, ptr %9, align 8
  %32 = load i32, ptr %17, align 4
  %33 = call ptr @proto_tree_add_item(ptr noundef %29, i32 noundef %30, ptr noundef %31, i32 noundef %32, i32 noundef 1, i32 noundef 0)
  %34 = load i32, ptr %17, align 4
  %35 = add i32 %34, 1
  store i32 %35, ptr %17, align 4
  %36 = load i8, ptr %18, align 1
  %37 = zext i8 %36 to i32
  switch i32 %37, label %44 [
    i32 0, label %38
    i32 1, label %51
    i32 2, label %51
  ]

38:                                               ; preds = %8
  %39 = load ptr, ptr %9, align 8
  %40 = load ptr, ptr %11, align 8
  %41 = load ptr, ptr %10, align 8
  %42 = load i32, ptr %17, align 4
  %43 = call zeroext i16 @de_cell_id(ptr noundef %39, ptr noundef %40, ptr noundef %41, i32 noundef %42, i32 noundef 8, ptr noundef null, i32 noundef 0)
  br label %51

44:                                               ; preds = %8
  %45 = load ptr, ptr %11, align 8
  %46 = load ptr, ptr %10, align 8
  %47 = load ptr, ptr %9, align 8
  %48 = load i32, ptr %17, align 4
  %49 = sub i32 %48, 1
  %50 = call ptr @proto_tree_add_expert(ptr noundef %45, ptr noundef %46, ptr noundef @ei_gtpv2_source_type_unknown, ptr noundef %47, i32 noundef %49, i32 noundef 1)
  br label %51

51:                                               ; preds = %44, %8, %8, %38
  call void @llvm.lifetime.end.p0(i64 1, ptr %18) #11
  call void @llvm.lifetime.end.p0(i64 4, ptr %17) #11
  ret void
}