; Function Attrs: null_pointer_is_valid sspstrong uwtable
define internal void @dissect_gtpv2_source_ident(ptr noundef %0, ptr noundef %1, ptr noundef %2, ptr readnone captures(none) %3, i16 zeroext %4, i8 zeroext %5, i8 zeroext %6, ptr readnone captures(none) %7) #1 {
  %9 = tail call zeroext i16 @de_cell_id(ptr noundef %0, ptr noundef %2, ptr noundef %1, i32 noundef 0, i32 noundef 8, ptr noundef null, i32 noundef 0)
  %10 = tail call zeroext i8 @tvb_get_uint8(ptr noundef %0, i32 noundef 8)
  %11 = load i32, ptr @hf_gtpv2_source_type, align 4
  %12 = tail call ptr @proto_tree_add_item(ptr noundef %2, i32 noundef %11, ptr noundef %0, i32 noundef 8, i32 noundef 1, i32 noundef 0)
  switch i8 %10, label %15 [
    i8 0, label %13
    i8 1, label %17
    i8 2, label %17
  ]

13:                                               ; preds = %8
  %14 = tail call zeroext i16 @de_cell_id(ptr noundef %0, ptr noundef %2, ptr noundef %1, i32 noundef 9, i32 noundef 8, ptr noundef null, i32 noundef 0)
  br label %17

15:                                               ; preds = %8
  %16 = tail call ptr @proto_tree_add_expert(ptr noundef %2, ptr noundef %1, ptr noundef nonnull @ei_gtpv2_source_type_unknown, ptr noundef %0, i32 noundef 8, i32 noundef 1)
  br label %17

17:                                               ; preds = %15, %13, %8, %8
  ret void
}